; Function Attrs: mustprogress uwtable
define noundef ptr @_ZNK6icu_778Collator14getTailoredSetER10UErrorCode(ptr nonnull readnone align 8 captures(none) %0, ptr noundef nonnull readonly align 4 captures(none) dereferenceable(4) %1) unnamed_addr #5 align 2 personality ptr @__gxx_personality_v0 {
  %3 = load i32, ptr %1, align 4, !tbaa !6
  %4 = icmp slt i32 %3, 1
  br i1 %4, label %5, label %11

5:                                                ; preds = %2
  %6 = tail call noundef ptr @_ZN6icu_777UMemorynwEm(i64 noundef 200) #16
  %7 = icmp eq ptr %6, null
  br i1 %7, label %11, label %8

8:                                                ; preds = %5
  invoke void @_ZN6icu_7710UnicodeSetC1Eii(ptr noundef nonnull align 8 dereferenceable(200) %6, i32 noundef 0, i32 noundef 1114111)
          to label %11 unwind label %9

9:                                                ; preds = %8
  %10 = landingpad { ptr, i32 }
          cleanup
  tail call void @_ZN6icu_777UMemorydlEPv(ptr noundef nonnull %6) #16
  resume { ptr, i32 } %10

11:                                               ; preds = %5, %8, %2
  %.0 = phi ptr [ null, %2 ], [ null, %5 ], [ %6, %8 ]
  ret ptr %.0
}